target datalayout = "e-m:e-p270:32:32-p271:32:32-p272:64:64-i64:64-i128:128-f80:128-n8:16:32:64-S128"
target triple = "x86_64-pc-linux-gnu"

@H5G_init_g = external global i8, align 1
@H5_libterm_g = external global i8, align 1

; Function Attrs: nounwind uwtable
define i32 @H5G__node_iterate_size(ptr noundef %0, ptr noundef %1, i64 noundef %2, ptr noundef %3, ptr noundef %4) #0 {
  %6 = alloca ptr, align 8
  %7 = alloca ptr, align 8
  %8 = alloca i64, align 8
  %9 = alloca ptr, align 8
  %10 = alloca ptr, align 8
  %11 = alloca ptr, align 8
  store ptr %0, ptr %6, align 8, !tbaa !3
  store ptr %1, ptr %7, align 8, !tbaa !8
  store i64 %2, ptr %8, align 8, !tbaa !21
  store ptr %3, ptr %9, align 8, !tbaa !8
  store ptr %4, ptr %10, align 8, !tbaa !8
  call void @llvm.lifetime.start.p0(i64 8, ptr %11) #8
  %12 = load ptr, ptr %10, align 8, !tbaa !8
  store ptr %12, ptr %11, align 8, !tbaa !15
  %13 = load i8, ptr @H5G_init_g, align 1, !tbaa !9, !range !11, !noundef !12
  %14 = trunc i8 %13 to i1
  br i1 %14, label %19, label %15

15:                                               ; preds = %5
  %16 = load i8, ptr @H5_libterm_g, align 1, !tbaa !9, !range !11, !noundef !12
  %17 = trunc i8 %16 to i1
  %18 = xor i1 %17, true
  br label %19

19:                                               ; preds = %15, %5
  %20 = phi i1 [ true, %5 ], [ %18, %15 ]
  %21 = xor i1 %20, true
  %22 = xor i1 %21, true
  %23 = zext i1 %22 to i32
  %24 = sext i32 %23 to i64
  %25 = call i64 @llvm.expect.i64(i64 %24, i64 1)
  %26 = icmp ne i64 %25, 0
  br i1 %26, label %27, label %47

27:                                               ; preds = %19
  %28 = load ptr, ptr %6, align 8, !tbaa !3
  %29 = call i32 @H5F_sym_leaf_k(ptr noundef %28)
  %30 = mul i32 2, %29
  %31 = load ptr, ptr %6, align 8, !tbaa !3
  %32 = call zeroext i8 @H5F_sizeof_size(ptr noundef %31)
  %33 = zext i8 %32 to i32
  %34 = load ptr, ptr %6, align 8, !tbaa !3
  %35 = call zeroext i8 @H5F_sizeof_addr(ptr noundef %34)
  %36 = zext i8 %35 to i32
  %37 = add nsw i32 %33, %36
  %38 = add nsw i32 %37, 4
  %39 = add nsw i32 %38, 4
  %40 = add nsw i32 %39, 16
  %41 = mul i32 %30, %40
  %42 = add i32 8, %41
  %43 = zext i32 %42 to i64
  %44 = load ptr, ptr %11, align 8, !tbaa !15
  %45 = load i64, ptr %44, align 8, !tbaa !21
  %46 = add i64 %45, %43
  store i64 %46, ptr %44, align 8, !tbaa !21
  br label %47

47:                                               ; preds = %27, %19
  call void @llvm.lifetime.end.p0(i64 8, ptr %11) #8
  ret i32 0
}