; Function Attrs: nounwind uwtable
define noundef i32 @H5G__node_iterate_size(ptr noundef %0, ptr noundef readnone captures(none) %1, i64 noundef %2, ptr noundef readnone captures(none) %3, ptr noundef captures(none) %4) local_unnamed_addr #0 {
  %6 = load i8, ptr @H5G_init_g, align 1, !tbaa !3, !range !7, !noundef !8
  %7 = trunc nuw i8 %6 to i1
  %8 = load i8, ptr @H5_libterm_g, align 1, !range !7
  %9 = trunc nuw i8 %8 to i1
  %10 = xor i1 %9, true
  %11 = select i1 %7, i1 true, i1 %10
  br i1 %11, label %12, label %26, !prof !9

12:                                               ; preds = %5
  %13 = tail call i32 @H5F_sym_leaf_k(ptr noundef %0) #9
  %14 = shl i32 %13, 1
  %15 = tail call zeroext i8 @H5F_sizeof_size(ptr noundef %0) #9
  %16 = zext i8 %15 to i32
  %17 = tail call zeroext i8 @H5F_sizeof_addr(ptr noundef %0) #9
  %18 = zext i8 %17 to i32
  %19 = add nuw nsw i32 %16, 24
  %20 = add nuw nsw i32 %19, %18
  %21 = mul i32 %14, %20
  %22 = add i32 %21, 8
  %23 = zext i32 %22 to i64
  %24 = load i64, ptr %4, align 8, !tbaa !10
  %25 = add i64 %24, %23
  store i64 %25, ptr %4, align 8, !tbaa !10
  br label %26

26:                                               ; preds = %12, %5
  ret i32 0
}